; Function Attrs: nounwind uwtable
define noalias noundef ptr @Abc_NtkFinCreateList(ptr noundef readonly captures(none) %0, ptr noundef readonly captures(none) %1) local_unnamed_addr #0 {
  %3 = tail call noalias dereferenceable_or_null(16) ptr @malloc(i64 noundef 16) #34
  %4 = getelementptr inbounds nuw i8, ptr %3, i64 4
  store i32 0, ptr %4, align 4, !tbaa !37
  store i32 100, ptr %3, align 8, !tbaa !35
  %5 = tail call noalias dereferenceable_or_null(400) ptr @malloc(i64 noundef 400) #34
  %6 = getelementptr inbounds nuw i8, ptr %3, i64 8
  store ptr %5, ptr %6, align 8, !tbaa !36
  %7 = getelementptr i8, ptr %1, i64 4
  %.val810 = load i32, ptr %7, align 4, !tbaa !37
  %8 = icmp sgt i32 %.val810, 0
  br i1 %8, label %.lr.ph, label %.critedge

.lr.ph:                                           ; preds = %2
  %9 = getelementptr i8, ptr %1, i64 8
  %10 = getelementptr i8, ptr %0, i64 8
  br label %11

11:                                               ; preds = %.lr.ph, %Vec_IntAppend.exit
  %.val817 = phi i32 [ %.val810, %.lr.ph ], [ %.val8, %Vec_IntAppend.exit ]
  %.pre.i.i13 = phi ptr [ %5, %.lr.ph ], [ %.pre.i.i14, %Vec_IntAppend.exit ]
  %indvars.iv = phi i64 [ 0, %.lr.ph ], [ %indvars.iv.next, %Vec_IntAppend.exit ]
  %.val = load ptr, ptr %9, align 8, !tbaa !36
  %12 = getelementptr inbounds nuw i32, ptr %.val, i64 %indvars.iv
  %13 = load i32, ptr %12, align 4, !tbaa !34
  %.val9 = load ptr, ptr %10, align 8, !tbaa !90
  %14 = sext i32 %13 to i64
  %15 = getelementptr inbounds %struct.Vec_Int_t_, ptr %.val9, i64 %14
  %16 = getelementptr i8, ptr %15, i64 4
  %.val67.i = load i32, ptr %16, align 4, !tbaa !37
  %17 = icmp sgt i32 %.val67.i, 0
  br i1 %17, label %.lr.ph.i, label %Vec_IntAppend.exit

.lr.ph.i:                                         ; preds = %11
  %18 = getelementptr i8, ptr %15, i64 8
  br label %19

19:                                               ; preds = %Vec_IntPush.exit.i, %.lr.ph.i
  %20 = phi ptr [ %.pre.i.i13, %.lr.ph.i ], [ %.pre.i.i16, %Vec_IntPush.exit.i ]
  %indvars.iv.i = phi i64 [ 0, %.lr.ph.i ], [ %indvars.iv.next.i, %Vec_IntPush.exit.i ]
  %.val.i = load ptr, ptr %18, align 8, !tbaa !36
  %21 = getelementptr inbounds nuw i32, ptr %.val.i, i64 %indvars.iv.i
  %22 = load i32, ptr %21, align 4, !tbaa !34
  %23 = load i32, ptr %4, align 4, !tbaa !37
  %24 = load i32, ptr %3, align 8, !tbaa !35
  %25 = icmp eq i32 %23, %24
  br i1 %25, label %26, label %Vec_IntPush.exit.i

26:                                               ; preds = %19
  %27 = icmp slt i32 %23, 16
  br i1 %27, label %28, label %33

28:                                               ; preds = %26
  %.not9.i.i.i = icmp eq ptr %20, null
  br i1 %.not9.i.i.i, label %31, label %29

29:                                               ; preds = %28
  %30 = tail call dereferenceable_or_null(64) ptr @realloc(ptr noundef nonnull %20, i64 noundef 64) #35
  br label %Vec_IntPush.exit.i.sink.split

31:                                               ; preds = %28
  %32 = tail call noalias dereferenceable_or_null(64) ptr @malloc(i64 noundef 64) #34
  br label %Vec_IntPush.exit.i.sink.split

33:                                               ; preds = %26
  %34 = shl nuw nsw i32 %23, 1
  %.not9.i9.i.i = icmp eq ptr %20, null
  %35 = zext nneg i32 %34 to i64
  %36 = shl nuw nsw i64 %35, 2
  br i1 %.not9.i9.i.i, label %39, label %37

37:                                               ; preds = %33
  %38 = tail call ptr @realloc(ptr noundef nonnull %20, i64 noundef %36) #35
  br label %Vec_IntPush.exit.i.sink.split

39:                                               ; preds = %33
  %40 = tail call noalias ptr @malloc(i64 noundef %36) #34
  br label %Vec_IntPush.exit.i.sink.split

Vec_IntPush.exit.i.sink.split:                    ; preds = %37, %39, %29, %31
  %.sink19 = phi ptr [ %30, %29 ], [ %32, %31 ], [ %38, %37 ], [ %40, %39 ]
  %.sink = phi i32 [ 16, %29 ], [ 16, %31 ], [ %34, %37 ], [ %34, %39 ]
  store ptr %.sink19, ptr %6, align 8, !tbaa !36
  store i32 %.sink, ptr %3, align 8, !tbaa !35
  br label %Vec_IntPush.exit.i

Vec_IntPush.exit.i:                               ; preds = %Vec_IntPush.exit.i.sink.split, %19
  %.pre.i.i16 = phi ptr [ %20, %19 ], [ %.sink19, %Vec_IntPush.exit.i.sink.split ]
  %41 = add nsw i32 %23, 1
  store i32 %41, ptr %4, align 4, !tbaa !37
  %42 = sext i32 %23 to i64
  %43 = getelementptr inbounds i32, ptr %.pre.i.i16, i64 %42
  store i32 %22, ptr %43, align 4, !tbaa !34
  %indvars.iv.next.i = add nuw nsw i64 %indvars.iv.i, 1
  %.val6.i = load i32, ptr %16, align 4, !tbaa !37
  %44 = sext i32 %.val6.i to i64
  %45 = icmp slt i64 %indvars.iv.next.i, %44
  br i1 %45, label %19, label %Vec_IntAppend.exit.loopexit, !llvm.loop !69

Vec_IntAppend.exit.loopexit:                      ; preds = %Vec_IntPush.exit.i
  %.val8.pre = load i32, ptr %7, align 4, !tbaa !37
  br label %Vec_IntAppend.exit

Vec_IntAppend.exit:                               ; preds = %Vec_IntAppend.exit.loopexit, %11
  %.val8 = phi i32 [ %.val8.pre, %Vec_IntAppend.exit.loopexit ], [ %.val817, %11 ]
  %.pre.i.i14 = phi ptr [ %.pre.i.i16, %Vec_IntAppend.exit.loopexit ], [ %.pre.i.i13, %11 ]
  %indvars.iv.next = add nuw nsw i64 %indvars.iv, 1
  %46 = sext i32 %.val8 to i64
  %47 = icmp slt i64 %indvars.iv.next, %46
  br i1 %47, label %11, label %.critedge, !llvm.loop !191

.critedge:                                        ; preds = %Vec_IntAppend.exit, %2
  ret ptr %3
}